; Function Attrs: mustprogress uwtable
define void @_ZN6icu_7512PluralFormatC2ERKNS_6LocaleERKNS_11PluralRulesER10UErrorCode(ptr noundef nonnull align 8 dereferenceable(712) %this, ptr noundef nonnull align 8 dereferenceable(217) %loc, ptr noundef nonnull align 8 dereferenceable(28) %rules, ptr noundef nonnull align 4 dereferenceable(4) %status) unnamed_addr #1 align 2 personality ptr @__gxx_personality_v0 {
entry:
  tail call void @_ZN6icu_756FormatC2Ev(ptr noundef nonnull align 8 dereferenceable(322) %this)
  store ptr getelementptr inbounds ({ [11 x ptr] }, ptr @_ZTVN6icu_7512PluralFormatE, i64 0, i32 0, i64 2), ptr %this, align 8
  %locale = getelementptr inbounds i8, ptr %this, i64 328
  invoke void @_ZN6icu_756LocaleC1ERKS0_(ptr noundef nonnull align 8 dereferenceable(217) %locale, ptr noundef nonnull align 8 dereferenceable(217) %loc)
          to label %invoke.cont unwind label %lpad

invoke.cont:                                      ; preds = %entry
  %msgPattern = getelementptr inbounds i8, ptr %this, i64 552
  invoke void @_ZN6icu_7514MessagePatternC1ER10UErrorCode(ptr noundef nonnull align 8 dereferenceable(127) %msgPattern, ptr noundef nonnull align 4 dereferenceable(4) %status)
          to label %invoke.cont3 unwind label %lpad2

invoke.cont3:                                     ; preds = %invoke.cont
  %numberFormat = getelementptr inbounds i8, ptr %this, i64 680
  %pluralRulesWrapper = getelementptr inbounds i8, ptr %this, i64 696
  tail call void @llvm.memset.p0.i64(ptr noundef nonnull align 8 dereferenceable(16) %numberFormat, i8 0, i64 16, i1 false)
  store ptr getelementptr inbounds ({ [5 x ptr] }, ptr @_ZTVN6icu_7512PluralFormat21PluralSelectorAdapterE, i64 0, i32 0, i64 2), ptr %pluralRulesWrapper, align 8
  %pluralRules.i = getelementptr inbounds i8, ptr %this, i64 704
  store ptr null, ptr %pluralRules.i, align 8
  %0 = load i32, ptr %status, align 4
  %cmp.i.i = icmp slt i32 %0, 1
  br i1 %cmp.i.i, label %if.end.i, label %invoke.cont7

if.end.i:                                         ; preds = %invoke.cont3
  %call4.i4 = invoke noundef ptr @_ZNK6icu_7511PluralRules5cloneEv(ptr noundef nonnull align 8 dereferenceable(28) %rules)
          to label %call4.i.noexc unwind label %lpad6

call4.i.noexc:                                    ; preds = %if.end.i
  store ptr %call4.i4, ptr %pluralRules.i, align 8
  %cmp9.i = icmp eq ptr %call4.i4, null
  br i1 %cmp9.i, label %if.then10.i, label %if.end12.i

if.then10.i:                                      ; preds = %call4.i.noexc
  store i32 7, ptr %status, align 4
  br label %invoke.cont7

if.end12.i:                                       ; preds = %call4.i.noexc
  %call14.i5 = invoke noundef ptr @_ZN6icu_7512NumberFormat14createInstanceERKNS_6LocaleER10UErrorCode(ptr noundef nonnull align 8 dereferenceable(217) %locale, ptr noundef nonnull align 4 dereferenceable(4) %status)
          to label %call14.i.noexc unwind label %lpad6

call14.i.noexc:                                   ; preds = %if.end12.i
  store ptr %call14.i5, ptr %numberFormat, align 8
  br label %invoke.cont7

invoke.cont7:                                     ; preds = %call14.i.noexc, %if.then10.i, %invoke.cont3
  ret void

lpad:                                             ; preds = %entry
  %1 = landingpad { ptr, i32 }
          cleanup
  br label %ehcleanup9

lpad2:                                            ; preds = %invoke.cont
  %2 = landingpad { ptr, i32 }
          cleanup
  br label %ehcleanup8

lpad6:                                            ; preds = %if.end12.i, %if.end.i
  %3 = landingpad { ptr, i32 }
          cleanup
  tail call void @_ZN6icu_7512PluralFormat21PluralSelectorAdapterD1Ev(ptr noundef nonnull align 8 dereferenceable(16) %pluralRulesWrapper) #15
  tail call void @_ZN6icu_7514MessagePatternD1Ev(ptr noundef nonnull align 8 dereferenceable(127) %msgPattern) #15
  br label %ehcleanup8

ehcleanup8:                                       ; preds = %lpad6, %lpad2
  %.pn = phi { ptr, i32 } [ %3, %lpad6 ], [ %2, %lpad2 ]
  tail call void @_ZN6icu_756LocaleD1Ev(ptr noundef nonnull align 8 dereferenceable(217) %locale) #15
  br label %ehcleanup9

ehcleanup9:                                       ; preds = %ehcleanup8, %lpad
  %.pn.pn = phi { ptr, i32 } [ %.pn, %ehcleanup8 ], [ %1, %lpad ]
  tail call void @_ZN6icu_756FormatD2Ev(ptr noundef nonnull align 8 dereferenceable(322) %this) #15
  resume { ptr, i32 } %.pn.pn
}